(lp0
S'Applications range from tasks such as industrial machine vision systems which, say, inspect bottles speeding by on a production line, to research into artificial intelligence and computers or robots that can comprehend the world around them. Computer vision covers the core technology of automated image analysis which is used in many fields.'
p1
a.