(dp0
VPattern recognition
p1
(lp2
S''
p3
asVArtificial intelligence (video games)
p4
(lp5
Vartificial intelligence and computer vision share other topics such as pattern recognition and learning techniques.
p6
asVComputer vision
p7
(lp8
Vcomputer vision is an interdisciplinary field that deals with how computers can be made for gaining high-level understanding from digital images or videos.
p9
aVconsequently, computer vision is sometimes seen as a part of the artificial intelligence field or the computer science field in general.
p10
asVMachine vision
p11
(lp12
g3
asVPattern recognition (psychology)
p13
(lp14
g3
asVImage analysis
p15
(lp16
g3
asVTopic
p17
(lp18
g3
asVDigital image
p19
(lp20
g3
asVObject detection
p21
(lp22
g3
asVPattern recognition (disambiguation)
p23
(lp24
g3
asVPattern Recognition (journal)
p25
(lp26
g3
asVArtificial intelligence
p27
g5
sVPattern Recognition (novel)
p28
(lp29
g3
as.