(lp0
VObject detection
p1
aVTopic
p2
aVArtificial intelligence
p3
aVArtificial intelligence (video games)
p4
aVMachine vision
p5
aVDigital image
p6
aVPattern recognition
p7
aVPattern recognition (psychology)
p8
aVPattern Recognition (novel)
p9
aVPattern recognition (disambiguation)
p10
aVPattern Recognition (journal)
p11
aVImage analysis
p12
aVComputer vision
p13
a.